target datalayout = "e-m:e-p270:32:32-p271:32:32-p272:64:64-i64:64-i128:128-f80:128-n8:16:32:64-S128"
target triple = "x86_64-pc-linux-gnu"

%struct.message = type { ptr, i32, i32, ptr, ptr, ptr, ptr, ptr, ptr, i64, i32, ptr, ptr, ptr, ptr, ptr, i8, i8, i8, i8, ptr }
%struct.text = type { ptr, ptr }

@.str.57 = private unnamed_addr constant [56 x i8] c"messageMoveText sanity check: t not within old_message\0A\00", align 1

; Function Attrs: nounwind uwtable
define i32 @messageMoveText(ptr noundef %0, ptr noundef %1, ptr noundef %2) #0 {
  %4 = alloca i32, align 4
  %5 = alloca ptr, align 8
  %6 = alloca ptr, align 8
  %7 = alloca ptr, align 8
  %8 = alloca i32, align 4
  %9 = alloca ptr, align 8
  %10 = alloca ptr, align 8
  store ptr %0, ptr %5, align 8
  store ptr %1, ptr %6, align 8
  store ptr %2, ptr %7, align 8
  %11 = load ptr, ptr %5, align 8
  %12 = getelementptr inbounds %struct.message, ptr %11, i32 0, i32 6
  %13 = load ptr, ptr %12, align 8
  %14 = icmp eq ptr %13, null
  br i1 %14, label %15, label %107

15:                                               ; preds = %3
  %16 = load ptr, ptr %7, align 8
  %17 = icmp ne ptr null, %16
  br i1 %17, label %18, label %92

18:                                               ; preds = %15
  %19 = load ptr, ptr %7, align 8
  %20 = getelementptr inbounds %struct.message, ptr %19, i32 0, i32 6
  %21 = load ptr, ptr %20, align 8
  %22 = icmp ne ptr null, %21
  br i1 %22, label %23, label %92

23:                                               ; preds = %18
  %24 = load ptr, ptr %6, align 8
  %25 = load ptr, ptr %5, align 8
  %26 = getelementptr inbounds %struct.message, ptr %25, i32 0, i32 6
  store ptr %24, ptr %26, align 8
  %27 = load ptr, ptr %7, align 8
  %28 = getelementptr inbounds %struct.message, ptr %27, i32 0, i32 6
  %29 = load ptr, ptr %28, align 8
  store ptr %29, ptr %9, align 8
  br label %30

30:                                               ; preds = %55, %23
  %31 = load ptr, ptr %9, align 8
  %32 = load ptr, ptr %6, align 8
  %33 = icmp ne ptr %31, %32
  br i1 %33, label %34, label %56

34:                                               ; preds = %30
  %35 = load ptr, ptr %9, align 8
  %36 = getelementptr inbounds %struct.text, ptr %35, i32 0, i32 0
  %37 = load ptr, ptr %36, align 8
  %38 = icmp ne ptr %37, null
  br i1 %38, label %39, label %46

39:                                               ; preds = %34
  %40 = load ptr, ptr %9, align 8
  %41 = getelementptr inbounds %struct.text, ptr %40, i32 0, i32 0
  %42 = load ptr, ptr %41, align 8
  %43 = call ptr @lineUnlink(ptr noundef %42)
  %44 = load ptr, ptr %9, align 8
  %45 = getelementptr inbounds %struct.text, ptr %44, i32 0, i32 0
  store ptr null, ptr %45, align 8
  br label %46

46:                                               ; preds = %39, %34
  %47 = load ptr, ptr %9, align 8
  %48 = getelementptr inbounds %struct.text, ptr %47, i32 0, i32 1
  %49 = load ptr, ptr %48, align 8
  store ptr %49, ptr %10, align 8
  %50 = load ptr, ptr %9, align 8
  call void @free(ptr noundef %50) #11
  %51 = load ptr, ptr %10, align 8
  store ptr %51, ptr %9, align 8
  %52 = load ptr, ptr %9, align 8
  %53 = icmp eq ptr %52, null
  br i1 %53, label %54, label %55

54:                                               ; preds = %46
  call void (ptr, ...) @cli_dbgmsg(ptr noundef @.str.57)
  store i32 -1, ptr %4, align 4
  br label %154

55:                                               ; preds = %46
  br label %30

56:                                               ; preds = %30
  %57 = load ptr, ptr %7, align 8
  %58 = getelementptr inbounds %struct.message, ptr %57, i32 0, i32 7
  %59 = load ptr, ptr %58, align 8
  %60 = load ptr, ptr %5, align 8
  %61 = getelementptr inbounds %struct.message, ptr %60, i32 0, i32 7
  store ptr %59, ptr %61, align 8
  %62 = load ptr, ptr %7, align 8
  %63 = getelementptr inbounds %struct.message, ptr %62, i32 0, i32 7
  store ptr null, ptr %63, align 8
  %64 = load ptr, ptr %7, align 8
  %65 = getelementptr inbounds %struct.message, ptr %64, i32 0, i32 6
  store ptr null, ptr %65, align 8
  %66 = load ptr, ptr %7, align 8
  %67 = getelementptr inbounds %struct.message, ptr %66, i32 0, i32 11
  %68 = load ptr, ptr %67, align 8
  %69 = icmp eq ptr %68, null
  br i1 %69, label %70, label %86

70:                                               ; preds = %56
  %71 = load ptr, ptr %7, align 8
  %72 = getelementptr inbounds %struct.message, ptr %71, i32 0, i32 14
  %73 = load ptr, ptr %72, align 8
  %74 = icmp eq ptr %73, null
  br i1 %74, label %75, label %86

75:                                               ; preds = %70
  %76 = load ptr, ptr %7, align 8
  %77 = getelementptr inbounds %struct.message, ptr %76, i32 0, i32 12
  %78 = load ptr, ptr %77, align 8
  %79 = icmp eq ptr %78, null
  br i1 %79, label %80, label %86

80:                                               ; preds = %75
  %81 = load ptr, ptr %7, align 8
  %82 = getelementptr inbounds %struct.message, ptr %81, i32 0, i32 13
  %83 = load ptr, ptr %82, align 8
  %84 = icmp eq ptr %83, null
  br i1 %84, label %85, label %86

85:                                               ; preds = %80
  store i32 0, ptr %4, align 4
  br label %154

86:                                               ; preds = %80, %75, %70, %56
  %87 = load ptr, ptr %5, align 8
  %88 = getelementptr inbounds %struct.message, ptr %87, i32 0, i32 6
  %89 = load ptr, ptr %88, align 8
  %90 = load ptr, ptr %5, align 8
  %91 = getelementptr inbounds %struct.message, ptr %90, i32 0, i32 7
  store ptr %89, ptr %91, align 8
  store i32 0, ptr %8, align 4
  br label %106

92:                                               ; preds = %18, %15
  %93 = load ptr, ptr %6, align 8
  %94 = call ptr @textMove(ptr noundef null, ptr noundef %93)
  %95 = load ptr, ptr %5, align 8
  %96 = getelementptr inbounds %struct.message, ptr %95, i32 0, i32 6
  store ptr %94, ptr %96, align 8
  %97 = load ptr, ptr %5, align 8
  %98 = getelementptr inbounds %struct.message, ptr %97, i32 0, i32 7
  store ptr %94, ptr %98, align 8
  %99 = load ptr, ptr %5, align 8
  %100 = getelementptr inbounds %struct.message, ptr %99, i32 0, i32 6
  %101 = load ptr, ptr %100, align 8
  %102 = icmp eq ptr %101, null
  br i1 %102, label %103, label %104

103:                                              ; preds = %92
  store i32 -1, ptr %4, align 4
  br label %154

104:                                              ; preds = %92
  store i32 0, ptr %8, align 4
  br label %105

105:                                              ; preds = %104
  br label %106

106:                                              ; preds = %105, %86
  br label %127

107:                                              ; preds = %3
  %108 = load ptr, ptr %5, align 8
  %109 = getelementptr inbounds %struct.message, ptr %108, i32 0, i32 7
  %110 = load ptr, ptr %109, align 8
  %111 = load ptr, ptr %6, align 8
  %112 = call ptr @textMove(ptr noundef %110, ptr noundef %111)
  %113 = load ptr, ptr %5, align 8
  %114 = getelementptr inbounds %struct.message, ptr %113, i32 0, i32 7
  store ptr %112, ptr %114, align 8
  %115 = load ptr, ptr %5, align 8
  %116 = getelementptr inbounds %struct.message, ptr %115, i32 0, i32 7
  %117 = load ptr, ptr %116, align 8
  %118 = icmp eq ptr %117, null
  br i1 %118, label %119, label %125

119:                                              ; preds = %107
  store i32 -1, ptr %8, align 4
  %120 = load ptr, ptr %5, align 8
  %121 = getelementptr inbounds %struct.message, ptr %120, i32 0, i32 6
  %122 = load ptr, ptr %121, align 8
  %123 = load ptr, ptr %5, align 8
  %124 = getelementptr inbounds %struct.message, ptr %123, i32 0, i32 7
  store ptr %122, ptr %124, align 8
  br label %126

125:                                              ; preds = %107
  store i32 0, ptr %8, align 4
  br label %126

126:                                              ; preds = %125, %119
  br label %127

127:                                              ; preds = %126, %106
  br label %128

128:                                              ; preds = %151, %127
  %129 = load ptr, ptr %5, align 8
  %130 = getelementptr inbounds %struct.message, ptr %129, i32 0, i32 7
  %131 = load ptr, ptr %130, align 8
  %132 = getelementptr inbounds %struct.text, ptr %131, i32 0, i32 1
  %133 = load ptr, ptr %132, align 8
  %134 = icmp ne ptr %133, null
  br i1 %134, label %135, label %152

135:                                              ; preds = %128
  %136 = load ptr, ptr %5, align 8
  %137 = getelementptr inbounds %struct.message, ptr %136, i32 0, i32 7
  %138 = load ptr, ptr %137, align 8
  %139 = getelementptr inbounds %struct.text, ptr %138, i32 0, i32 1
  %140 = load ptr, ptr %139, align 8
  %141 = load ptr, ptr %5, align 8
  %142 = getelementptr inbounds %struct.message, ptr %141, i32 0, i32 7
  store ptr %140, ptr %142, align 8
  %143 = load ptr, ptr %5, align 8
  %144 = getelementptr inbounds %struct.message, ptr %143, i32 0, i32 7
  %145 = load ptr, ptr %144, align 8
  %146 = getelementptr inbounds %struct.text, ptr %145, i32 0, i32 0
  %147 = load ptr, ptr %146, align 8
  %148 = icmp ne ptr %147, null
  br i1 %148, label %149, label %151

149:                                              ; preds = %135
  %150 = load ptr, ptr %5, align 8
  call void @messageIsEncoding(ptr noundef %150)
  br label %151

151:                                              ; preds = %149, %135
  br label %128

152:                                              ; preds = %128
  %153 = load i32, ptr %8, align 4
  store i32 %153, ptr %4, align 4
  br label %154

154:                                              ; preds = %152, %103, %85, %54
  %155 = load i32, ptr %4, align 4
  ret i32 %155
}