; Function Attrs: nounwind uwtable
define noundef i32 @messageMoveText(ptr nocapture noundef %0, ptr noundef %1, ptr noundef %2) local_unnamed_addr #2 {
  %4 = getelementptr inbounds i8, ptr %0, i64 40
  %5 = load ptr, ptr %4, align 8
  %6 = icmp eq ptr %5, null
  br i1 %6, label %7, label %48

7:                                                ; preds = %3
  %.not = icmp eq ptr %2, null
  br i1 %.not, label %44, label %8

8:                                                ; preds = %7
  %9 = getelementptr inbounds i8, ptr %2, i64 40
  %10 = load ptr, ptr %9, align 8
  %.not47 = icmp eq ptr %10, null
  br i1 %.not47, label %44, label %11

11:                                               ; preds = %8
  store ptr %1, ptr %4, align 8
  %12 = load ptr, ptr %9, align 8
  br label %13

13:                                               ; preds = %18, %11
  %.041 = phi ptr [ %12, %11 ], [ %20, %18 ]
  %.not48 = icmp eq ptr %.041, %1
  br i1 %.not48, label %23, label %14

14:                                               ; preds = %13
  %15 = load ptr, ptr %.041, align 8
  %.not51 = icmp eq ptr %15, null
  br i1 %.not51, label %18, label %16

16:                                               ; preds = %14
  %17 = tail call ptr @lineUnlink(ptr noundef nonnull %15) #21
  br label %18

18:                                               ; preds = %16, %14
  %19 = getelementptr inbounds i8, ptr %.041, i64 8
  %20 = load ptr, ptr %19, align 8
  tail call void @free(ptr noundef nonnull %.041) #21
  %21 = icmp eq ptr %20, null
  br i1 %21, label %22, label %13

22:                                               ; preds = %18
  tail call void (ptr, ...) @cli_dbgmsg(ptr noundef nonnull @.str.57) #21
  br label %.loopexit

23:                                               ; preds = %13
  %24 = getelementptr inbounds i8, ptr %2, i64 48
  %25 = load ptr, ptr %24, align 8
  %26 = getelementptr inbounds i8, ptr %0, i64 48
  store ptr %25, ptr %26, align 8
  %27 = getelementptr inbounds i8, ptr %2, i64 80
  tail call void @llvm.memset.p0.i64(ptr noundef nonnull align 8 dereferenceable(16) %9, i8 0, i64 16, i1 false)
  %28 = load ptr, ptr %27, align 8
  %29 = icmp eq ptr %28, null
  br i1 %29, label %30, label %42

30:                                               ; preds = %23
  %31 = getelementptr inbounds i8, ptr %2, i64 104
  %32 = load ptr, ptr %31, align 8
  %33 = icmp eq ptr %32, null
  br i1 %33, label %34, label %42

34:                                               ; preds = %30
  %35 = getelementptr inbounds i8, ptr %2, i64 88
  %36 = load ptr, ptr %35, align 8
  %37 = icmp eq ptr %36, null
  br i1 %37, label %38, label %42

38:                                               ; preds = %34
  %39 = getelementptr inbounds i8, ptr %2, i64 96
  %40 = load ptr, ptr %39, align 8
  %41 = icmp eq ptr %40, null
  br i1 %41, label %.loopexit, label %42

42:                                               ; preds = %38, %34, %30, %23
  %43 = load ptr, ptr %4, align 8
  store ptr %43, ptr %26, align 8
  br label %55

44:                                               ; preds = %8, %7
  %45 = tail call ptr @textMove(ptr noundef null, ptr noundef %1) #21
  store ptr %45, ptr %4, align 8
  %46 = getelementptr inbounds i8, ptr %0, i64 48
  store ptr %45, ptr %46, align 8
  %47 = icmp eq ptr %45, null
  br i1 %47, label %.loopexit, label %55

48:                                               ; preds = %3
  %49 = getelementptr inbounds i8, ptr %0, i64 48
  %50 = load ptr, ptr %49, align 8
  %51 = tail call ptr @textMove(ptr noundef %50, ptr noundef %1) #21
  store ptr %51, ptr %49, align 8
  %52 = icmp eq ptr %51, null
  br i1 %52, label %53, label %55

53:                                               ; preds = %48
  %54 = load ptr, ptr %4, align 8
  store ptr %54, ptr %49, align 8
  br label %55

55:                                               ; preds = %48, %44, %53, %42
  %56 = phi ptr [ %43, %42 ], [ %54, %53 ], [ %45, %44 ], [ %51, %48 ]
  %.042 = phi i32 [ 0, %42 ], [ -1, %53 ], [ 0, %44 ], [ 0, %48 ]
  %57 = getelementptr inbounds i8, ptr %0, i64 48
  %58 = getelementptr inbounds i8, ptr %56, i64 8
  %59 = load ptr, ptr %58, align 8
  %.not4952 = icmp eq ptr %59, null
  br i1 %.not4952, label %.loopexit, label %.lr.ph

.lr.ph:                                           ; preds = %55, %63
  %60 = phi ptr [ %66, %63 ], [ %59, %55 ]
  store ptr %60, ptr %57, align 8
  %61 = load ptr, ptr %60, align 8
  %.not50 = icmp eq ptr %61, null
  br i1 %.not50, label %63, label %62

62:                                               ; preds = %.lr.ph
  tail call fastcc void @messageIsEncoding(ptr noundef nonnull %0)
  %.pre = load ptr, ptr %57, align 8
  br label %63

63:                                               ; preds = %62, %.lr.ph
  %64 = phi ptr [ %.pre, %62 ], [ %60, %.lr.ph ]
  %65 = getelementptr inbounds i8, ptr %64, i64 8
  %66 = load ptr, ptr %65, align 8
  %.not49 = icmp eq ptr %66, null
  br i1 %.not49, label %.loopexit, label %.lr.ph

.loopexit:                                        ; preds = %63, %55, %44, %38, %22
  %.0 = phi i32 [ -1, %22 ], [ 0, %38 ], [ -1, %44 ], [ %.042, %55 ], [ %.042, %63 ]
  ret i32 %.0
}